(dp0
I3
(dp1
I0
ccopy_reg
_reconstructor
p2
(csympy.core.add
Add
p3
c__builtin__
object
p4
Ntp5
Rp6
(dp7
S'_a_inprogress'
p8
(lp9
sS'_mhash'
p10
NsS'_assume_type_keys'
p11
NsS'_args'
p12
(g2
(csympy.core.mul
Mul
p13
g4
Ntp14
Rp15
(dp16
g8
(lp17
sg10
I174429704544358667
sg11
Nsg12
(g2
(csympy.core.power
Pow
p18
g4
Ntp19
Rp20
(dp21
g8
(lp22
sg11
Nsg12
(g2
(g3
g4
Ntp23
Rp24
(dp25
g8
(lp26
sg10
I-6886272105129453850
sg11
Nsg12
(g2
(csympy.core.symbol
Symbol
p27
g4
Ntp28
Rp29
(dp30
g8
(lp31
sS'name'
p32
S'X2'
p33
sg11
Nsg12
(tsS'_assumptions'
p34
(dp35
S'comparable'
p36
I00
ssS'is_commutative'
p37
I01
sg10
I-2566653734172257212
sbg2
(g13
g4
Ntp38
Rp39
(dp40
g8
(lp41
sg10
I4715561662911436869
sg11
Nsg12
(g2
(csympy.core.numbers
NegativeOne
p42
g4
Ntp43
Rp44
(dp45
S'q'
p46
I1
sS'p'
p47
I-1
sg8
(lp48
sg10
I7661115593229879962
sg11
Nsg12
(tsg34
(dp49
S'real'
p50
I01
sS'nonzero'
p51
I01
sg36
I01
sS'commutative'
p52
I01
sS'nonpositive'
p53
I01
sS'composite'
p54
I00
sS'unbounded'
p55
I00
sS'noninteger'
p56
I00
sS'complex'
p57
I01
sS'negative'
p58
I01
sS'nonnegative'
p59
I00
sS'prime'
p60
I00
sS'zero'
p61
I00
sS'infinitesimal'
p62
I00
sS'bounded'
p63
I01
sS'rational'
p64
I01
sS'positive'
p65
I00
sS'integer'
p66
I01
sS'imaginary'
p67
I00
sS'finite'
p68
I01
sS'irrational'
p69
I00
ssbg2
(g27
g4
Ntp70
Rp71
(dp72
g8
(lp73
sg32
S'X1'
p74
sg11
Nsg12
(tsg34
g35
sg37
I01
sg10
I-2566653734171092163
sbtp75
sg34
(dp76
sg37
I01
sbtp77
sg34
(dp78
sg37
I01
sbg2
(csympy.core.numbers
Integer
p79
g4
Ntp80
Rp81
(dp82
g46
I1
sg47
I3
sg8
(lp83
sg10
I6250420752641848820
sg11
Nsg12
(tsg34
(dp84
g50
I01
sg51
I01
sg36
I01
sg52
I01
sS'nonpositive'
p85
I00
sg55
I00
sg56
I00
sg57
I01
sS'nonnegative'
p86
I01
sg60
Nsg61
I00
sg62
I00
sg63
I01
sS'negative'
p87
I00
sg64
I01
sg65
I01
sg66
I01
sg67
I00
sg68
I01
sg69
I00
ssbtp88
sg34
(dp89
sg37
I01
sg10
I-9038246617727890686
sbg2
(csympy.polys.polytools
Poly
p90
g4
Ntp91
Rp92
(dp93
g8
(lp94
sg11
Nsg12
(tsS'rep'
p95
g2
(csympy.polys.polyclasses
DMP
p96
g4
Ntp97
Rp98
(dp99
g95
(lp100
(lp101
g2
(csympy.polys.polyclasses
DMF
p102
g4
Ntp103
Rp104
(dp105
S'num'
p106
(lp107
(lp108
(lp109
(lp110
(lp111
(lp112
(lp113
L36L
aa(lp114
L-72L
aI0
aa(lp115
L36L
aI0
aI0
aaaaaaa(lp116
(lp117
(lp118
(lp119
(lp120
(lp121
L-72L
aa(lp122
L72L
aI0
aaa(lp123
(lp124
L72L
aa(lp125
L-72L
aI0
aa(lp126
aaaaa(lp127
(lp128
(lp129
(lp130
(lp131
L-72L
aa(lp132
L144L
aI0
aa(lp133
L-72L
aI0
aI0
aaaaa(lp134
(lp135
(lp136
(lp137
L72L
aa(lp138
L-72L
aI0
aaa(lp139
(lp140
L-72L
aa(lp141
L72L
aI0
aa(lp142
aaa(lp143
(lp144
(lp145
aaaaaa(lp146
(lp147
(lp148
(lp149
(lp150
(lp151
L36L
aaa(lp152
(lp153
L-72L
aa(lp154
aa(lp155
(lp156
L36L
aa(lp157
a(lp158
aaaaa(lp159
(lp160
(lp161
(lp162
(lp163
L72L
aa(lp164
L-72L
aI0
aaa(lp165
(lp166
L-72L
aa(lp167
L72L
aI0
aa(lp168
aaaa(lp169
(lp170
(lp171
(lp172
L-72L
aaa(lp173
(lp174
L144L
aa(lp175
aa(lp176
(lp177
L-72L
aa(lp178
a(lp179
aaa(lp180
(lp181
(lp182
aaaaa(lp183
(lp184
(lp185
(lp186
(lp187
L36L
aa(lp188
L-72L
aI0
aa(lp189
L36L
aI0
aI0
aaaaa(lp190
(lp191
(lp192
(lp193
L-72L
aa(lp194
L72L
aI0
aaa(lp195
(lp196
L72L
aa(lp197
L-72L
aI0
aa(lp198
aaa(lp199
(lp200
(lp201
aaaa(lp202
(lp203
(lp204
(lp205
L36L
aaa(lp206
(lp207
L-72L
aa(lp208
aa(lp209
(lp210
L36L
aa(lp211
a(lp212
aaa(lp213
(lp214
(lp215
aaa(lp216
(lp217
(lp218
aaaaaasS'lev'
p219
I6
sS'den'
p220
(lp221
(lp222
(lp223
(lp224
(lp225
(lp226
(lp227
L1L
aaaaaa(lp228
(lp229
(lp230
(lp231
(lp232
L-2L
aaaa(lp233
(lp234
(lp235
aaaaa(lp236
(lp237
(lp238
(lp239
(lp240
L1L
aaaa(lp241
(lp242
(lp243
aaa(lp244
(lp245
(lp246
aaaaaa(lp247
(lp248
(lp249
(lp250
(lp251
(lp252
L-2L
aaaaa(lp253
(lp254
(lp255
(lp256
L-2L
aaaa(lp257
(lp258
(lp259
aaaaa(lp260
(lp261
(lp262
(lp263
(lp264
L4L
aaaa(lp265
(lp266
(lp267
aaaa(lp268
(lp269
(lp270
(lp271
L4L
aaaa(lp272
(lp273
(lp274
aaa(lp275
(lp276
(lp277
aaaaa(lp278
(lp279
(lp280
(lp281
(lp282
L-2L
aaaa(lp283
(lp284
(lp285
aaa(lp286
(lp287
(lp288
aaaa(lp289
(lp290
(lp291
(lp292
L-2L
aaaa(lp293
(lp294
(lp295
aaa(lp296
(lp297
(lp298
aaa(lp299
(lp300
(lp301
aaaaaa(lp302
(lp303
(lp304
(lp305
(lp306
(lp307
L1L
aaaaa(lp308
(lp309
(lp310
(lp311
L4L
aaaa(lp312
(lp313
(lp314
aaaa(lp315
(lp316
(lp317
(lp318
L1L
aaaa(lp319
(lp320
(lp321
aaa(lp322
(lp323
(lp324
aaaaa(lp325
(lp326
(lp327
(lp328
(lp329
L-2L
aaaa(lp330
(lp331
(lp332
aaaa(lp333
(lp334
(lp335
(lp336
L-8L
aaaa(lp337
(lp338
(lp339
aaa(lp340
(lp341
(lp342
aaaa(lp343
(lp344
(lp345
(lp346
L-2L
aaaa(lp347
(lp348
(lp349
aaa(lp350
(lp351
(lp352
aaa(lp353
(lp354
(lp355
aaaaa(lp356
(lp357
(lp358
(lp359
(lp360
L1L
aaaa(lp361
(lp362
(lp363
aaa(lp364
(lp365
(lp366
aaaa(lp367
(lp368
(lp369
(lp370
L4L
aaaa(lp371
(lp372
(lp373
aaa(lp374
(lp375
(lp376
aaa(lp377
(lp378
(lp379
aaaa(lp380
(lp381
(lp382
(lp383
L1L
aaaa(lp384
(lp385
(lp386
aaa(lp387
(lp388
(lp389
aaa(lp390
(lp391
(lp392
aaa(lp393
(lp394
(lp395
aaaaaa(lp396
(lp397
(lp398
(lp399
(lp400
(lp401
L-2L
aaaa(lp402
(lp403
(lp404
aaaa(lp405
(lp406
(lp407
(lp408
L-2L
aaaa(lp409
(lp410
(lp411
aaa(lp412
(lp413
(lp414
aaaa(lp415
(lp416
(lp417
(lp418
aaaaa(lp419
(lp420
(lp421
(lp422
(lp423
L4L
aaaa(lp424
(lp425
(lp426
aaa(lp427
(lp428
(lp429
aaaa(lp430
(lp431
(lp432
(lp433
L4L
aaaa(lp434
(lp435
(lp436
aaa(lp437
(lp438
(lp439
aaa(lp440
(lp441
(lp442
aaaa(lp443
(lp444
(lp445
(lp446
aaaaa(lp447
(lp448
(lp449
(lp450
(lp451
L-2L
aaaa(lp452
(lp453
(lp454
aaa(lp455
(lp456
(lp457
aaa(lp458
(lp459
(lp460
aaaa(lp461
(lp462
(lp463
(lp464
L-2L
aaaa(lp465
(lp466
(lp467
aaa(lp468
(lp469
(lp470
aaa(lp471
(lp472
(lp473
aaa(lp474
(lp475
(lp476
aaaa(lp477
(lp478
(lp479
(lp480
aaaaaa(lp481
(lp482
(lp483
(lp484
(lp485
(lp486
L1L
aaaa(lp487
(lp488
(lp489
aaa(lp490
(lp491
(lp492
aaaa(lp493
(lp494
(lp495
(lp496
aaaa(lp497
(lp498
(lp499
(lp500
aaaaa(lp501
(lp502
(lp503
(lp504
(lp505
L-2L
aaaa(lp506
(lp507
(lp508
aaa(lp509
(lp510
(lp511
aaa(lp512
(lp513
(lp514
aaaa(lp515
(lp516
(lp517
(lp518
aaaa(lp519
(lp520
(lp521
(lp522
aaaaa(lp523
(lp524
(lp525
(lp526
(lp527
L1L
aaaa(lp528
(lp529
(lp530
aaa(lp531
(lp532
(lp533
aaa(lp534
(lp535
(lp536
aaa(lp537
(lp538
(lp539
aaaa(lp540
(lp541
(lp542
(lp543
aaaa(lp544
(lp545
(lp546
(lp547
aaaaaasS'dom'
p548
g2
(csympy.polys.domains.pythonintegerring
PythonIntegerRing
p549
g4
Ntp550
Rp551
sbaa(lp552
g2
(g102
g4
Ntp553
Rp554
(dp555
g106
(lp556
(lp557
(lp558
(lp559
(lp560
(lp561
(lp562
L-36L
aa(lp563
L72L
aI0
aa(lp564
L-36L
aI0
aI0
aaaaaaa(lp565
(lp566
(lp567
(lp568
(lp569
(lp570
L72L
aa(lp571
L-72L
aI0
aaa(lp572
(lp573
L-72L
aa(lp574
L72L
aI0
aa(lp575
aaaaa(lp576
(lp577
(lp578
(lp579
(lp580
L72L
aa(lp581
L-144L
aI0
aa(lp582
L72L
aI0
aI0
aaaaa(lp583
(lp584
(lp585
(lp586
L-72L
aa(lp587
L72L
aI0
aaa(lp588
(lp589
L72L
aa(lp590
L-72L
aI0
aa(lp591
aaa(lp592
(lp593
(lp594
aaaaaa(lp595
(lp596
(lp597
(lp598
(lp599
(lp600
L-36L
aaa(lp601
(lp602
L72L
aa(lp603
aa(lp604
(lp605
L-36L
aa(lp606
a(lp607
aaaaa(lp608
(lp609
(lp610
(lp611
(lp612
L-72L
aa(lp613
L72L
aI0
aaa(lp614
(lp615
L72L
aa(lp616
L-72L
aI0
aa(lp617
aaaa(lp618
(lp619
(lp620
(lp621
L72L
aaa(lp622
(lp623
L-144L
aa(lp624
aa(lp625
(lp626
L72L
aa(lp627
a(lp628
aaa(lp629
(lp630
(lp631
aaaaa(lp632
(lp633
(lp634
(lp635
(lp636
L-36L
aa(lp637
L72L
aI0
aa(lp638
L-36L
aI0
aI0
aaaaa(lp639
(lp640
(lp641
(lp642
L72L
aa(lp643
L-72L
aI0
aaa(lp644
(lp645
L-72L
aa(lp646
L72L
aI0
aa(lp647
aaa(lp648
(lp649
(lp650
aaaa(lp651
(lp652
(lp653
(lp654
L-36L
aaa(lp655
(lp656
L72L
aa(lp657
aa(lp658
(lp659
L-36L
aa(lp660
a(lp661
aaa(lp662
(lp663
(lp664
aaa(lp665
(lp666
(lp667
aaaaaasg219
I6
sg220
g221
sg548
g551
sbag2
(g102
g4
Ntp668
Rp669
(dp670
g106
(lp671
(lp672
(lp673
(lp674
(lp675
(lp676
(lp677
aaaaaasg219
I6
sg220
(lp678
(lp679
(lp680
(lp681
(lp682
(lp683
(lp684
I1
aaaaaaasg548
g551
sbaasg219
I1
sg548
g2
(csympy.polys.domains.fractionfield
FractionField
p685
g4
Ntp686
Rp687
(dp688
S'zero'
p689
g2
(g102
g4
Ntp690
Rp691
(dp692
g106
(lp693
(lp694
(lp695
(lp696
(lp697
(lp698
(lp699
aaaaaasg219
I6
sg220
(lp700
(lp701
(lp702
(lp703
(lp704
(lp705
(lp706
I1
aaaaaaasg548
g551
sbsg548
g551
sS'gens'
p707
(g2
(g27
g4
Ntp708
Rp709
(dp710
g8
(lp711
sg32
S'x0'
p712
sg11
Nsg12
(tsg34
g35
sg37
I01
sg10
I-4415447792104350954
sbg2
(g27
g4
Ntp713
Rp714
(dp715
g8
(lp716
sg32
S'x1'
p717
sg11
Nsg12
(tsg34
g35
sg37
I01
sg10
I-4415447792105516003
sbg2
(g27
g4
Ntp718
Rp719
(dp720
g8
(lp721
sg32
S'x2'
p722
sg11
Nsg12
(tsg34
g35
sg37
I01
sg10
I-4415447792106681052
sbg2
(g27
g4
Ntp723
Rp724
(dp725
g8
(lp726
sg32
S'x3'
p727
sg11
Nsg12
(tsg34
g35
sg37
I01
sg10
I-4415447792107846101
sbg2
(g27
g4
Ntp728
Rp729
(dp730
g8
(lp731
sg32
S'y0'
p732
sg11
Nsg12
(tsg34
g35
sg37
I01
sg10
I2828226718467065195
sbg2
(g27
g4
Ntp733
Rp734
(dp735
g8
(lp736
sg32
S'y1'
p737
sg11
Nsg12
(tsg34
g35
sg37
I01
sg10
I2828226718468230244
sbg2
(g27
g4
Ntp738
Rp739
(dp740
g8
(lp741
sg32
S'y2'
p742
sg11
Nsg12
(tsg34
g35
sg37
I01
sg10
I2828226718469395293
sbtp743
sS'one'
p744
g2
(g102
g4
Ntp745
Rp746
(dp747
g106
(lp748
(lp749
(lp750
(lp751
(lp752
(lp753
(lp754
I1
aaaaaaasg219
I6
sg220
(lp755
(lp756
(lp757
(lp758
(lp759
(lp760
(lp761
I1
aaaaaaasg548
g551
sbsbsbsg34
(dp762
S'commutative'
p763
Nssg707
(g29
g71
tp764
sg10
I3522063946595410991
sbtp765
sg34
g76
sg37
I00
sbg2
(g13
g4
Ntp766
Rp767
(dp768
g8
(lp769
sg10
I7375565777166352239
sg11
Nsg12
(g24
g2
(g90
g4
Ntp770
Rp771
(dp772
g8
(lp773
sg11
Nsg12
(tsg95
g2
(g96
g4
Ntp774
Rp775
(dp776
g95
(lp777
(lp778
g2
(g102
g4
Ntp779
Rp780
(dp781
g106
(lp782
(lp783
(lp784
(lp785
(lp786
(lp787
(lp788
L12L
aa(lp789
L-24L
aI0
aa(lp790
L12L
aI0
aI0
aaaaaaa(lp791
(lp792
(lp793
(lp794
(lp795
(lp796
L-24L
aa(lp797
L24L
aI0
aaa(lp798
(lp799
L24L
aa(lp800
L-24L
aI0
aa(lp801
aaaaa(lp802
(lp803
(lp804
(lp805
(lp806
L-24L
aa(lp807
L48L
aI0
aa(lp808
L-24L
aI0
aI0
aaaaa(lp809
(lp810
(lp811
(lp812
L24L
aa(lp813
L-24L
aI0
aaa(lp814
(lp815
L-24L
aa(lp816
L24L
aI0
aa(lp817
aaa(lp818
(lp819
(lp820
aaaaaa(lp821
(lp822
(lp823
(lp824
(lp825
(lp826
L12L
aaa(lp827
(lp828
L-24L
aa(lp829
aa(lp830
(lp831
L12L
aa(lp832
a(lp833
aaaaa(lp834
(lp835
(lp836
(lp837
(lp838
L24L
aa(lp839
L-24L
aI0
aaa(lp840
(lp841
L-24L
aa(lp842
L24L
aI0
aa(lp843
aaaa(lp844
(lp845
(lp846
(lp847
L-24L
aaa(lp848
(lp849
L48L
aa(lp850
aa(lp851
(lp852
L-24L
aa(lp853
a(lp854
aaa(lp855
(lp856
(lp857
aaaaa(lp858
(lp859
(lp860
(lp861
(lp862
L12L
aa(lp863
L-24L
aI0
aa(lp864
L12L
aI0
aI0
aaaaa(lp865
(lp866
(lp867
(lp868
L-24L
aa(lp869
L24L
aI0
aaa(lp870
(lp871
L24L
aa(lp872
L-24L
aI0
aa(lp873
aaa(lp874
(lp875
(lp876
aaaa(lp877
(lp878
(lp879
(lp880
L12L
aaa(lp881
(lp882
L-24L
aa(lp883
aa(lp884
(lp885
L12L
aa(lp886
a(lp887
aaa(lp888
(lp889
(lp890
aaa(lp891
(lp892
(lp893
aaaaaasg219
I6
sg220
(lp894
(lp895
(lp896
(lp897
(lp898
(lp899
(lp900
L1L
aaaaaa(lp901
(lp902
(lp903
(lp904
(lp905
L-2L
aaaa(lp906
(lp907
(lp908
aaaaa(lp909
(lp910
(lp911
(lp912
(lp913
L1L
aaaa(lp914
(lp915
(lp916
aaa(lp917
(lp918
(lp919
aaaaaa(lp920
(lp921
(lp922
(lp923
(lp924
(lp925
L-2L
aaaaa(lp926
(lp927
(lp928
(lp929
L-2L
aaaa(lp930
(lp931
(lp932
aaaaa(lp933
(lp934
(lp935
(lp936
(lp937
L4L
aaaa(lp938
(lp939
(lp940
aaaa(lp941
(lp942
(lp943
(lp944
L4L
aaaa(lp945
(lp946
(lp947
aaa(lp948
(lp949
(lp950
aaaaa(lp951
(lp952
(lp953
(lp954
(lp955
L-2L
aaaa(lp956
(lp957
(lp958
aaa(lp959
(lp960
(lp961
aaaa(lp962
(lp963
(lp964
(lp965
L-2L
aaaa(lp966
(lp967
(lp968
aaa(lp969
(lp970
(lp971
aaa(lp972
(lp973
(lp974
aaaaaa(lp975
(lp976
(lp977
(lp978
(lp979
(lp980
L1L
aaaaa(lp981
(lp982
(lp983
(lp984
L4L
aaaa(lp985
(lp986
(lp987
aaaa(lp988
(lp989
(lp990
(lp991
L1L
aaaa(lp992
(lp993
(lp994
aaa(lp995
(lp996
(lp997
aaaaa(lp998
(lp999
(lp1000
(lp1001
(lp1002
L-2L
aaaa(lp1003
(lp1004
(lp1005
aaaa(lp1006
(lp1007
(lp1008
(lp1009
L-8L
aaaa(lp1010
(lp1011
(lp1012
aaa(lp1013
(lp1014
(lp1015
aaaa(lp1016
(lp1017
(lp1018
(lp1019
L-2L
aaaa(lp1020
(lp1021
(lp1022
aaa(lp1023
(lp1024
(lp1025
aaa(lp1026
(lp1027
(lp1028
aaaaa(lp1029
(lp1030
(lp1031
(lp1032
(lp1033
L1L
aaaa(lp1034
(lp1035
(lp1036
aaa(lp1037
(lp1038
(lp1039
aaaa(lp1040
(lp1041
(lp1042
(lp1043
L4L
aaaa(lp1044
(lp1045
(lp1046
aaa(lp1047
(lp1048
(lp1049
aaa(lp1050
(lp1051
(lp1052
aaaa(lp1053
(lp1054
(lp1055
(lp1056
L1L
aaaa(lp1057
(lp1058
(lp1059
aaa(lp1060
(lp1061
(lp1062
aaa(lp1063
(lp1064
(lp1065
aaa(lp1066
(lp1067
(lp1068
aaaaaa(lp1069
(lp1070
(lp1071
(lp1072
(lp1073
(lp1074
L-2L
aaaa(lp1075
(lp1076
(lp1077
aaaa(lp1078
(lp1079
(lp1080
(lp1081
L-2L
aaaa(lp1082
(lp1083
(lp1084
aaa(lp1085
(lp1086
(lp1087
aaaa(lp1088
(lp1089
(lp1090
(lp1091
aaaaa(lp1092
(lp1093
(lp1094
(lp1095
(lp1096
L4L
aaaa(lp1097
(lp1098
(lp1099
aaa(lp1100
(lp1101
(lp1102
aaaa(lp1103
(lp1104
(lp1105
(lp1106
L4L
aaaa(lp1107
(lp1108
(lp1109
aaa(lp1110
(lp1111
(lp1112
aaa(lp1113
(lp1114
(lp1115
aaaa(lp1116
(lp1117
(lp1118
(lp1119
aaaaa(lp1120
(lp1121
(lp1122
(lp1123
(lp1124
L-2L
aaaa(lp1125
(lp1126
(lp1127
aaa(lp1128
(lp1129
(lp1130
aaa(lp1131
(lp1132
(lp1133
aaaa(lp1134
(lp1135
(lp1136
(lp1137
L-2L
aaaa(lp1138
(lp1139
(lp1140
aaa(lp1141
(lp1142
(lp1143
aaa(lp1144
(lp1145
(lp1146
aaa(lp1147
(lp1148
(lp1149
aaaa(lp1150
(lp1151
(lp1152
(lp1153
aaaaaa(lp1154
(lp1155
(lp1156
(lp1157
(lp1158
(lp1159
L1L
aaaa(lp1160
(lp1161
(lp1162
aaa(lp1163
(lp1164
(lp1165
aaaa(lp1166
(lp1167
(lp1168
(lp1169
aaaa(lp1170
(lp1171
(lp1172
(lp1173
aaaaa(lp1174
(lp1175
(lp1176
(lp1177
(lp1178
L-2L
aaaa(lp1179
(lp1180
(lp1181
aaa(lp1182
(lp1183
(lp1184
aaa(lp1185
(lp1186
(lp1187
aaaa(lp1188
(lp1189
(lp1190
(lp1191
aaaa(lp1192
(lp1193
(lp1194
(lp1195
aaaaa(lp1196
(lp1197
(lp1198
(lp1199
(lp1200
L1L
aaaa(lp1201
(lp1202
(lp1203
aaa(lp1204
(lp1205
(lp1206
aaa(lp1207
(lp1208
(lp1209
aaa(lp1210
(lp1211
(lp1212
aaaa(lp1213
(lp1214
(lp1215
(lp1216
aaaa(lp1217
(lp1218
(lp1219
(lp1220
aaaaaasg548
g551
sbaa(lp1221
g2
(g102
g4
Ntp1222
Rp1223
(dp1224
g106
(lp1225
(lp1226
(lp1227
(lp1228
(lp1229
(lp1230
(lp1231
L-12L
aa(lp1232
L24L
aI0
aa(lp1233
L-12L
aI0
aI0
aaaaaaa(lp1234
(lp1235
(lp1236
(lp1237
(lp1238
(lp1239
L12L
aa(lp1240
L-12L
aI0
aaa(lp1241
(lp1242
L-24L
aa(lp1243
L36L
aI0
aa(lp1244
L-12L
aI0
aI0
aaaaaa(lp1245
(lp1246
(lp1247
(lp1248
(lp1249
L12L
aa(lp1250
L-24L
aI0
aa(lp1251
L12L
aI0
aI0
aaaaa(lp1252
(lp1253
(lp1254
(lp1255
L-12L
aa(lp1256
L12L
aI0
aaa(lp1257
(lp1258
L12L
aa(lp1259
L-12L
aI0
aa(lp1260
aaa(lp1261
(lp1262
(lp1263
aaaaaa(lp1264
(lp1265
(lp1266
(lp1267
(lp1268
(lp1269
L24L
aa(lp1270
L-24L
aI0
aaa(lp1271
(lp1272
L-24L
aa(lp1273
L24L
aI0
aa(lp1274
aaaaa(lp1275
(lp1276
(lp1277
(lp1278
(lp1279
L12L
aa(lp1280
L-12L
aI0
aaa(lp1281
(lp1282
L12L
aa(lp1283
L-36L
aI0
aa(lp1284
L24L
aI0
aI0
aaaaa(lp1285
(lp1286
(lp1287
(lp1288
L-12L
aa(lp1289
L12L
aI0
aaa(lp1290
(lp1291
L12L
aa(lp1292
L-12L
aI0
aa(lp1293
aaa(lp1294
(lp1295
(lp1296
aaaaa(lp1297
(lp1298
(lp1299
(lp1300
(lp1301
L12L
aa(lp1302
L-24L
aI0
aa(lp1303
L12L
aI0
aI0
aaaaa(lp1304
(lp1305
(lp1306
(lp1307
L-12L
aa(lp1308
L12L
aI0
aaa(lp1309
(lp1310
L12L
aa(lp1311
L-12L
aI0
aa(lp1312
aaa(lp1313
(lp1314
(lp1315
aaaa(lp1316
(lp1317
(lp1318
(lp1319
L-12L
aa(lp1320
L12L
aI0
aaa(lp1321
(lp1322
L12L
aa(lp1323
L-12L
aI0
aa(lp1324
aaa(lp1325
(lp1326
(lp1327
aaa(lp1328
(lp1329
(lp1330
aaaaaa(lp1331
(lp1332
(lp1333
(lp1334
(lp1335
(lp1336
L-12L
aaa(lp1337
(lp1338
L24L
aa(lp1339
aa(lp1340
(lp1341
L-12L
aa(lp1342
a(lp1343
aaaaa(lp1344
(lp1345
(lp1346
(lp1347
(lp1348
L-12L
aaa(lp1349
(lp1350
L24L
aI0
aaa(lp1351
(lp1352
L12L
aa(lp1353
L-24L
aI0
aa(lp1354
aaaa(lp1355
(lp1356
(lp1357
(lp1358
L12L
aaa(lp1359
(lp1360
L-24L
aa(lp1361
aa(lp1362
(lp1363
L12L
aa(lp1364
a(lp1365
aaa(lp1366
(lp1367
(lp1368
aaaaa(lp1369
(lp1370
(lp1371
(lp1372
(lp1373
L-24L
aa(lp1374
L24L
aI0
aaa(lp1375
(lp1376
L12L
aa(lp1377
a(lp1378
L-12L
aI0
aI0
aaaaa(lp1379
(lp1380
(lp1381
(lp1382
L24L
aaa(lp1383
(lp1384
L-36L
aa(lp1385
L-12L
aI0
aaa(lp1386
(lp1387
L12L
aa(lp1388
L12L
aI0
aa(lp1389
aaa(lp1390
(lp1391
(lp1392
aaaa(lp1393
(lp1394
(lp1395
(lp1396
L12L
aaa(lp1397
(lp1398
L-24L
aa(lp1399
aa(lp1400
(lp1401
L12L
aa(lp1402
a(lp1403
aaa(lp1404
(lp1405
(lp1406
aaa(lp1407
(lp1408
(lp1409
aaaaa(lp1410
(lp1411
(lp1412
(lp1413
(lp1414
L-12L
aa(lp1415
L24L
aI0
aa(lp1416
L-12L
aI0
aI0
aaaaa(lp1417
(lp1418
(lp1419
(lp1420
L24L
aa(lp1421
L-24L
aI0
aaa(lp1422
(lp1423
L-24L
aa(lp1424
L24L
aI0
aa(lp1425
aaa(lp1426
(lp1427
(lp1428
aaaa(lp1429
(lp1430
(lp1431
(lp1432
L-12L
aaa(lp1433
(lp1434
L36L
aa(lp1435
L-12L
aI0
aaa(lp1436
(lp1437
L-24L
aa(lp1438
L12L
aI0
aa(lp1439
aaa(lp1440
(lp1441
(lp1442
aaa(lp1443
(lp1444
(lp1445
aaaa(lp1446
(lp1447
(lp1448
(lp1449
L-12L
aaa(lp1450
(lp1451
L24L
aa(lp1452
aa(lp1453
(lp1454
L-12L
aa(lp1455
a(lp1456
aaa(lp1457
(lp1458
(lp1459
aaa(lp1460
(lp1461
(lp1462
aaa(lp1463
(lp1464
(lp1465
aaaaaasg219
I6
sg220
(lp1466
(lp1467
(lp1468
(lp1469
(lp1470
(lp1471
(lp1472
L1L
aaaaaa(lp1473
(lp1474
(lp1475
(lp1476
(lp1477
L-2L
aaaa(lp1478
(lp1479
(lp1480
aaaaa(lp1481
(lp1482
(lp1483
(lp1484
(lp1485
L1L
aaaa(lp1486
(lp1487
(lp1488
aaa(lp1489
(lp1490
(lp1491
aaaaaa(lp1492
(lp1493
(lp1494
(lp1495
(lp1496
(lp1497
L-2L
aaaaa(lp1498
(lp1499
(lp1500
(lp1501
L-2L
aaaa(lp1502
(lp1503
(lp1504
aaaaa(lp1505
(lp1506
(lp1507
(lp1508
(lp1509
L4L
aaaa(lp1510
(lp1511
(lp1512
aaaa(lp1513
(lp1514
(lp1515
(lp1516
L4L
aaaa(lp1517
(lp1518
(lp1519
aaa(lp1520
(lp1521
(lp1522
aaaaa(lp1523
(lp1524
(lp1525
(lp1526
(lp1527
L-2L
aaaa(lp1528
(lp1529
(lp1530
aaa(lp1531
(lp1532
(lp1533
aaaa(lp1534
(lp1535
(lp1536
(lp1537
L-2L
aaaa(lp1538
(lp1539
(lp1540
aaa(lp1541
(lp1542
(lp1543
aaa(lp1544
(lp1545
(lp1546
aaaaaa(lp1547
(lp1548
(lp1549
(lp1550
(lp1551
(lp1552
L1L
aaaaa(lp1553
(lp1554
(lp1555
(lp1556
L4L
aaaa(lp1557
(lp1558
(lp1559
aaaa(lp1560
(lp1561
(lp1562
(lp1563
L1L
aaaa(lp1564
(lp1565
(lp1566
aaa(lp1567
(lp1568
(lp1569
aaaaa(lp1570
(lp1571
(lp1572
(lp1573
(lp1574
L-2L
aaaa(lp1575
(lp1576
(lp1577
aaaa(lp1578
(lp1579
(lp1580
(lp1581
L-8L
aaaa(lp1582
(lp1583
(lp1584
aaa(lp1585
(lp1586
(lp1587
aaaa(lp1588
(lp1589
(lp1590
(lp1591
L-2L
aaaa(lp1592
(lp1593
(lp1594
aaa(lp1595
(lp1596
(lp1597
aaa(lp1598
(lp1599
(lp1600
aaaaa(lp1601
(lp1602
(lp1603
(lp1604
(lp1605
L1L
aaaa(lp1606
(lp1607
(lp1608
aaa(lp1609
(lp1610
(lp1611
aaaa(lp1612
(lp1613
(lp1614
(lp1615
L4L
aaaa(lp1616
(lp1617
(lp1618
aaa(lp1619
(lp1620
(lp1621
aaa(lp1622
(lp1623
(lp1624
aaaa(lp1625
(lp1626
(lp1627
(lp1628
L1L
aaaa(lp1629
(lp1630
(lp1631
aaa(lp1632
(lp1633
(lp1634
aaa(lp1635
(lp1636
(lp1637
aaa(lp1638
(lp1639
(lp1640
aaaaaa(lp1641
(lp1642
(lp1643
(lp1644
(lp1645
(lp1646
L-2L
aaaa(lp1647
(lp1648
(lp1649
aaaa(lp1650
(lp1651
(lp1652
(lp1653
L-2L
aaaa(lp1654
(lp1655
(lp1656
aaa(lp1657
(lp1658
(lp1659
aaaa(lp1660
(lp1661
(lp1662
(lp1663
aaaaa(lp1664
(lp1665
(lp1666
(lp1667
(lp1668
L4L
aaaa(lp1669
(lp1670
(lp1671
aaa(lp1672
(lp1673
(lp1674
aaaa(lp1675
(lp1676
(lp1677
(lp1678
L4L
aaaa(lp1679
(lp1680
(lp1681
aaa(lp1682
(lp1683
(lp1684
aaa(lp1685
(lp1686
(lp1687
aaaa(lp1688
(lp1689
(lp1690
(lp1691
aaaaa(lp1692
(lp1693
(lp1694
(lp1695
(lp1696
L-2L
aaaa(lp1697
(lp1698
(lp1699
aaa(lp1700
(lp1701
(lp1702
aaa(lp1703
(lp1704
(lp1705
aaaa(lp1706
(lp1707
(lp1708
(lp1709
L-2L
aaaa(lp1710
(lp1711
(lp1712
aaa(lp1713
(lp1714
(lp1715
aaa(lp1716
(lp1717
(lp1718
aaa(lp1719
(lp1720
(lp1721
aaaa(lp1722
(lp1723
(lp1724
(lp1725
aaaaaa(lp1726
(lp1727
(lp1728
(lp1729
(lp1730
(lp1731
L1L
aaaa(lp1732
(lp1733
(lp1734
aaa(lp1735
(lp1736
(lp1737
aaaa(lp1738
(lp1739
(lp1740
(lp1741
aaaa(lp1742
(lp1743
(lp1744
(lp1745
aaaaa(lp1746
(lp1747
(lp1748
(lp1749
(lp1750
L-2L
aaaa(lp1751
(lp1752
(lp1753
aaa(lp1754
(lp1755
(lp1756
aaa(lp1757
(lp1758
(lp1759
aaaa(lp1760
(lp1761
(lp1762
(lp1763
aaaa(lp1764
(lp1765
(lp1766
(lp1767
aaaaa(lp1768
(lp1769
(lp1770
(lp1771
(lp1772
L1L
aaaa(lp1773
(lp1774
(lp1775
aaa(lp1776
(lp1777
(lp1778
aaa(lp1779
(lp1780
(lp1781
aaa(lp1782
(lp1783
(lp1784
aaaa(lp1785
(lp1786
(lp1787
(lp1788
aaaa(lp1789
(lp1790
(lp1791
(lp1792
aaaaaasg548
g551
sbaa(lp1793
g2
(g102
g4
Ntp1794
Rp1795
(dp1796
g106
(lp1797
(lp1798
(lp1799
(lp1800
(lp1801
(lp1802
(lp1803
L4L
aa(lp1804
L-8L
aI0
aa(lp1805
L4L
aI0
aI0
aaaaaaa(lp1806
(lp1807
(lp1808
(lp1809
(lp1810
(lp1811
L8L
aa(lp1812
L-16L
aI0
aa(lp1813
L8L
aI0
aI0
aaaaaa(lp1814
(lp1815
(lp1816
(lp1817
(lp1818
aaaaaa(lp1819
(lp1820
(lp1821
(lp1822
(lp1823
(lp1824
L-8L
aa(lp1825
L8L
aI0
aaa(lp1826
(lp1827
L12L
aa(lp1828
L-16L
aI0
aa(lp1829
L4L
aI0
aI0
aaaaaa(lp1830
(lp1831
(lp1832
(lp1833
(lp1834
L-8L
aa(lp1835
L8L
aI0
aaa(lp1836
(lp1837
L8L
aI0
aa(lp1838
L-8L
aI0
aI0
aaaaa(lp1839
(lp1840
(lp1841
(lp1842
aaaaa(lp1843
(lp1844
(lp1845
(lp1846
(lp1847
L-8L
aa(lp1848
L16L
aI0
aa(lp1849
L-8L
aI0
aI0
aaaaa(lp1850
(lp1851
(lp1852
(lp1853
L8L
aa(lp1854
L-8L
aI0
aaa(lp1855
(lp1856
L-8L
aa(lp1857
L8L
aI0
aa(lp1858
aaa(lp1859
(lp1860
(lp1861
aaaa(lp1862
(lp1863
(lp1864
(lp1865
L8L
aa(lp1866
L-8L
aI0
aaa(lp1867
(lp1868
L-8L
aa(lp1869
L8L
aI0
aa(lp1870
aaa(lp1871
(lp1872
(lp1873
aaa(lp1874
(lp1875
(lp1876
aaaaaa(lp1877
(lp1878
(lp1879
(lp1880
(lp1881
(lp1882
L-8L
aa(lp1883
L8L
aI0
aaa(lp1884
(lp1885
L8L
aa(lp1886
L-8L
aI0
aa(lp1887
aaaaa(lp1888
(lp1889
(lp1890
(lp1891
(lp1892
L-8L
aa(lp1893
L8L
aI0
aaa(lp1894
(lp1895
L8L
aI0
aa(lp1896
L-8L
aI0
aI0
aaaaa(lp1897
(lp1898
(lp1899
(lp1900
aaaaa(lp1901
(lp1902
(lp1903
(lp1904
(lp1905
L-8L
aa(lp1906
L16L
aI0
aa(lp1907
L-8L
aI0
aI0
aaaaa(lp1908
(lp1909
(lp1910
(lp1911
L8L
aa(lp1912
L-8L
aI0
aaa(lp1913
(lp1914
L-8L
aa(lp1915
L8L
aI0
aa(lp1916
aaa(lp1917
(lp1918
(lp1919
aaaa(lp1920
(lp1921
(lp1922
(lp1923
L8L
aa(lp1924
L-8L
aI0
aaa(lp1925
(lp1926
L-8L
aa(lp1927
L8L
aI0
aa(lp1928
aaa(lp1929
(lp1930
(lp1931
aaa(lp1932
(lp1933
(lp1934
aaaaa(lp1935
(lp1936
(lp1937
(lp1938
(lp1939
aaaaaa(lp1940
(lp1941
(lp1942
(lp1943
(lp1944
(lp1945
L4L
aaa(lp1946
(lp1947
L-8L
aa(lp1948
aa(lp1949
(lp1950
L4L
aa(lp1951
a(lp1952
aaaaa(lp1953
(lp1954
(lp1955
(lp1956
(lp1957
L8L
aaa(lp1958
(lp1959
L-8L
aa(lp1960
L-8L
aI0
aaa(lp1961
(lp1962
L8L
aI0
aa(lp1963
aaaa(lp1964
(lp1965
(lp1966
(lp1967
aaaaa(lp1968
(lp1969
(lp1970
(lp1971
(lp1972
L4L
aaa(lp1973
(lp1974
L8L
aa(lp1975
L-16L
aI0
aaa(lp1976
(lp1977
L-8L
aa(lp1978
L8L
aI0
aa(lp1979
L4L
aI0
aI0
aaaaa(lp1980
(lp1981
(lp1982
(lp1983
L-8L
aaa(lp1984
(lp1985
L16L
aa(lp1986
aa(lp1987
(lp1988
L-8L
aa(lp1989
a(lp1990
aaa(lp1991
(lp1992
(lp1993
aaaa(lp1994
(lp1995
(lp1996
(lp1997
L-8L
aaa(lp1998
(lp1999
L16L
aa(lp2000
aa(lp2001
(lp2002
L-8L
aa(lp2003
a(lp2004
aaa(lp2005
(lp2006
(lp2007
aaa(lp2008
(lp2009
(lp2010
aaaaa(lp2011
(lp2012
(lp2013
(lp2014
(lp2015
L8L
aa(lp2016
L-8L
aI0
aaa(lp2017
(lp2018
L-8L
aI0
aa(lp2019
L8L
aI0
aI0
aaaaa(lp2020
(lp2021
(lp2022
(lp2023
L-8L
aaa(lp2024
(lp2025
L8L
aa(lp2026
L8L
aI0
aaa(lp2027
(lp2028
L-8L
aI0
aa(lp2029
aaa(lp2030
(lp2031
(lp2032
aaaa(lp2033
(lp2034
(lp2035
(lp2036
L-8L
aaa(lp2037
(lp2038
L8L
aa(lp2039
L8L
aI0
aaa(lp2040
(lp2041
L-8L
aI0
aa(lp2042
aaa(lp2043
(lp2044
(lp2045
aaa(lp2046
(lp2047
(lp2048
aaaa(lp2049
(lp2050
(lp2051
(lp2052
aaaaa(lp2053
(lp2054
(lp2055
(lp2056
(lp2057
L4L
aa(lp2058
L-8L
aI0
aa(lp2059
L4L
aI0
aI0
aaaaa(lp2060
(lp2061
(lp2062
(lp2063
L-8L
aa(lp2064
L8L
aI0
aaa(lp2065
(lp2066
L8L
aa(lp2067
L-8L
aI0
aa(lp2068
aaa(lp2069
(lp2070
(lp2071
aaaa(lp2072
(lp2073
(lp2074
(lp2075
L4L
aaa(lp2076
(lp2077
L-16L
aa(lp2078
L8L
aI0
aaa(lp2079
(lp2080
L12L
aa(lp2081
L-8L
aI0
aa(lp2082
aaa(lp2083
(lp2084
(lp2085
aaa(lp2086
(lp2087
(lp2088
aaaa(lp2089
(lp2090
(lp2091
(lp2092
L8L
aaa(lp2093
(lp2094
L-16L
aa(lp2095
aa(lp2096
(lp2097
L8L
aa(lp2098
a(lp2099
aaa(lp2100
(lp2101
(lp2102
aaa(lp2103
(lp2104
(lp2105
aaa(lp2106
(lp2107
(lp2108
aaaa(lp2109
(lp2110
(lp2111
(lp2112
L4L
aaa(lp2113
(lp2114
L-8L
aa(lp2115
aa(lp2116
(lp2117
L4L
aa(lp2118
a(lp2119
aaa(lp2120
(lp2121
(lp2122
aaa(lp2123
(lp2124
(lp2125
aaa(lp2126
(lp2127
(lp2128
aaa(lp2129
(lp2130
(lp2131
aaaaaasg219
I6
sg220
(lp2132
(lp2133
(lp2134
(lp2135
(lp2136
(lp2137
(lp2138
L1L
aaaaaa(lp2139
(lp2140
(lp2141
(lp2142
(lp2143
L-2L
aaaa(lp2144
(lp2145
(lp2146
aaaaa(lp2147
(lp2148
(lp2149
(lp2150
(lp2151
L1L
aaaa(lp2152
(lp2153
(lp2154
aaa(lp2155
(lp2156
(lp2157
aaaaaa(lp2158
(lp2159
(lp2160
(lp2161
(lp2162
(lp2163
L-2L
aaaaa(lp2164
(lp2165
(lp2166
(lp2167
L-2L
aaaa(lp2168
(lp2169
(lp2170
aaaaa(lp2171
(lp2172
(lp2173
(lp2174
(lp2175
L4L
aaaa(lp2176
(lp2177
(lp2178
aaaa(lp2179
(lp2180
(lp2181
(lp2182
L4L
aaaa(lp2183
(lp2184
(lp2185
aaa(lp2186
(lp2187
(lp2188
aaaaa(lp2189
(lp2190
(lp2191
(lp2192
(lp2193
L-2L
aaaa(lp2194
(lp2195
(lp2196
aaa(lp2197
(lp2198
(lp2199
aaaa(lp2200
(lp2201
(lp2202
(lp2203
L-2L
aaaa(lp2204
(lp2205
(lp2206
aaa(lp2207
(lp2208
(lp2209
aaa(lp2210
(lp2211
(lp2212
aaaaaa(lp2213
(lp2214
(lp2215
(lp2216
(lp2217
(lp2218
L1L
aaaaa(lp2219
(lp2220
(lp2221
(lp2222
L4L
aaaa(lp2223
(lp2224
(lp2225
aaaa(lp2226
(lp2227
(lp2228
(lp2229
L1L
aaaa(lp2230
(lp2231
(lp2232
aaa(lp2233
(lp2234
(lp2235
aaaaa(lp2236
(lp2237
(lp2238
(lp2239
(lp2240
L-2L
aaaa(lp2241
(lp2242
(lp2243
aaaa(lp2244
(lp2245
(lp2246
(lp2247
L-8L
aaaa(lp2248
(lp2249
(lp2250
aaa(lp2251
(lp2252
(lp2253
aaaa(lp2254
(lp2255
(lp2256
(lp2257
L-2L
aaaa(lp2258
(lp2259
(lp2260
aaa(lp2261
(lp2262
(lp2263
aaa(lp2264
(lp2265
(lp2266
aaaaa(lp2267
(lp2268
(lp2269
(lp2270
(lp2271
L1L
aaaa(lp2272
(lp2273
(lp2274
aaa(lp2275
(lp2276
(lp2277
aaaa(lp2278
(lp2279
(lp2280
(lp2281
L4L
aaaa(lp2282
(lp2283
(lp2284
aaa(lp2285
(lp2286
(lp2287
aaa(lp2288
(lp2289
(lp2290
aaaa(lp2291
(lp2292
(lp2293
(lp2294
L1L
aaaa(lp2295
(lp2296
(lp2297
aaa(lp2298
(lp2299
(lp2300
aaa(lp2301
(lp2302
(lp2303
aaa(lp2304
(lp2305
(lp2306
aaaaaa(lp2307
(lp2308
(lp2309
(lp2310
(lp2311
(lp2312
L-2L
aaaa(lp2313
(lp2314
(lp2315
aaaa(lp2316
(lp2317
(lp2318
(lp2319
L-2L
aaaa(lp2320
(lp2321
(lp2322
aaa(lp2323
(lp2324
(lp2325
aaaa(lp2326
(lp2327
(lp2328
(lp2329
aaaaa(lp2330
(lp2331
(lp2332
(lp2333
(lp2334
L4L
aaaa(lp2335
(lp2336
(lp2337
aaa(lp2338
(lp2339
(lp2340
aaaa(lp2341
(lp2342
(lp2343
(lp2344
L4L
aaaa(lp2345
(lp2346
(lp2347
aaa(lp2348
(lp2349
(lp2350
aaa(lp2351
(lp2352
(lp2353
aaaa(lp2354
(lp2355
(lp2356
(lp2357
aaaaa(lp2358
(lp2359
(lp2360
(lp2361
(lp2362
L-2L
aaaa(lp2363
(lp2364
(lp2365
aaa(lp2366
(lp2367
(lp2368
aaa(lp2369
(lp2370
(lp2371
aaaa(lp2372
(lp2373
(lp2374
(lp2375
L-2L
aaaa(lp2376
(lp2377
(lp2378
aaa(lp2379
(lp2380
(lp2381
aaa(lp2382
(lp2383
(lp2384
aaa(lp2385
(lp2386
(lp2387
aaaa(lp2388
(lp2389
(lp2390
(lp2391
aaaaaa(lp2392
(lp2393
(lp2394
(lp2395
(lp2396
(lp2397
L1L
aaaa(lp2398
(lp2399
(lp2400
aaa(lp2401
(lp2402
(lp2403
aaaa(lp2404
(lp2405
(lp2406
(lp2407
aaaa(lp2408
(lp2409
(lp2410
(lp2411
aaaaa(lp2412
(lp2413
(lp2414
(lp2415
(lp2416
L-2L
aaaa(lp2417
(lp2418
(lp2419
aaa(lp2420
(lp2421
(lp2422
aaa(lp2423
(lp2424
(lp2425
aaaa(lp2426
(lp2427
(lp2428
(lp2429
aaaa(lp2430
(lp2431
(lp2432
(lp2433
aaaaa(lp2434
(lp2435
(lp2436
(lp2437
(lp2438
L1L
aaaa(lp2439
(lp2440
(lp2441
aaa(lp2442
(lp2443
(lp2444
aaa(lp2445
(lp2446
(lp2447
aaa(lp2448
(lp2449
(lp2450
aaaa(lp2451
(lp2452
(lp2453
(lp2454
aaaa(lp2455
(lp2456
(lp2457
(lp2458
aaaaaasg548
g551
sbaa(lp2459
g2
(g102
g4
Ntp2460
Rp2461
(dp2462
g106
(lp2463
(lp2464
(lp2465
(lp2466
(lp2467
(lp2468
(lp2469
L-12L
aa(lp2470
L24L
aI0
aa(lp2471
L-12L
aI0
aI0
aaaaaaa(lp2472
(lp2473
(lp2474
(lp2475
(lp2476
(lp2477
L24L
aa(lp2478
L-24L
aI0
aaa(lp2479
(lp2480
L-24L
aa(lp2481
L24L
aI0
aa(lp2482
aaaaa(lp2483
(lp2484
(lp2485
(lp2486
(lp2487
L24L
aa(lp2488
L-48L
aI0
aa(lp2489
L24L
aI0
aI0
aaaaa(lp2490
(lp2491
(lp2492
(lp2493
L-24L
aa(lp2494
L24L
aI0
aaa(lp2495
(lp2496
L24L
aa(lp2497
L-24L
aI0
aa(lp2498
aaa(lp2499
(lp2500
(lp2501
aaaaaa(lp2502
(lp2503
(lp2504
(lp2505
(lp2506
(lp2507
L-12L
aaa(lp2508
(lp2509
L24L
aa(lp2510
aa(lp2511
(lp2512
L-12L
aa(lp2513
a(lp2514
aaaaa(lp2515
(lp2516
(lp2517
(lp2518
(lp2519
L-24L
aa(lp2520
L24L
aI0
aaa(lp2521
(lp2522
L24L
aa(lp2523
L-24L
aI0
aa(lp2524
aaaa(lp2525
(lp2526
(lp2527
(lp2528
L24L
aaa(lp2529
(lp2530
L-48L
aa(lp2531
aa(lp2532
(lp2533
L24L
aa(lp2534
a(lp2535
aaa(lp2536
(lp2537
(lp2538
aaaaa(lp2539
(lp2540
(lp2541
(lp2542
(lp2543
L-12L
aa(lp2544
L24L
aI0
aa(lp2545
L-12L
aI0
aI0
aaaaa(lp2546
(lp2547
(lp2548
(lp2549
L24L
aa(lp2550
L-24L
aI0
aaa(lp2551
(lp2552
L-24L
aa(lp2553
L24L
aI0
aa(lp2554
aaa(lp2555
(lp2556
(lp2557
aaaa(lp2558
(lp2559
(lp2560
(lp2561
L-12L
aaa(lp2562
(lp2563
L24L
aa(lp2564
aa(lp2565
(lp2566
L-12L
aa(lp2567
a(lp2568
aaa(lp2569
(lp2570
(lp2571
aaa(lp2572
(lp2573
(lp2574
aaaaaasg219
I6
sg220
g894
sg548
g551
sbag2
(g102
g4
Ntp2575
Rp2576
(dp2577
g106
(lp2578
(lp2579
(lp2580
(lp2581
(lp2582
(lp2583
(lp2584
L12L
aa(lp2585
L-24L
aI0
aa(lp2586
L12L
aI0
aI0
aaaaaaa(lp2587
(lp2588
(lp2589
(lp2590
(lp2591
(lp2592
L-12L
aa(lp2593
L12L
aI0
aaa(lp2594
(lp2595
L24L
aa(lp2596
L-36L
aI0
aa(lp2597
L12L
aI0
aI0
aaaaaa(lp2598
(lp2599
(lp2600
(lp2601
(lp2602
L-12L
aa(lp2603
L24L
aI0
aa(lp2604
L-12L
aI0
aI0
aaaaa(lp2605
(lp2606
(lp2607
(lp2608
L12L
aa(lp2609
L-12L
aI0
aaa(lp2610
(lp2611
L-12L
aa(lp2612
L12L
aI0
aa(lp2613
aaa(lp2614
(lp2615
(lp2616
aaaaaa(lp2617
(lp2618
(lp2619
(lp2620
(lp2621
(lp2622
L-24L
aa(lp2623
L24L
aI0
aaa(lp2624
(lp2625
L24L
aa(lp2626
L-24L
aI0
aa(lp2627
aaaaa(lp2628
(lp2629
(lp2630
(lp2631
(lp2632
L-12L
aa(lp2633
L12L
aI0
aaa(lp2634
(lp2635
L-12L
aa(lp2636
L36L
aI0
aa(lp2637
L-24L
aI0
aI0
aaaaa(lp2638
(lp2639
(lp2640
(lp2641
L12L
aa(lp2642
L-12L
aI0
aaa(lp2643
(lp2644
L-12L
aa(lp2645
L12L
aI0
aa(lp2646
aaa(lp2647
(lp2648
(lp2649
aaaaa(lp2650
(lp2651
(lp2652
(lp2653
(lp2654
L-12L
aa(lp2655
L24L
aI0
aa(lp2656
L-12L
aI0
aI0
aaaaa(lp2657
(lp2658
(lp2659
(lp2660
L12L
aa(lp2661
L-12L
aI0
aaa(lp2662
(lp2663
L-12L
aa(lp2664
L12L
aI0
aa(lp2665
aaa(lp2666
(lp2667
(lp2668
aaaa(lp2669
(lp2670
(lp2671
(lp2672
L12L
aa(lp2673
L-12L
aI0
aaa(lp2674
(lp2675
L-12L
aa(lp2676
L12L
aI0
aa(lp2677
aaa(lp2678
(lp2679
(lp2680
aaa(lp2681
(lp2682
(lp2683
aaaaaa(lp2684
(lp2685
(lp2686
(lp2687
(lp2688
(lp2689
L12L
aaa(lp2690
(lp2691
L-24L
aa(lp2692
aa(lp2693
(lp2694
L12L
aa(lp2695
a(lp2696
aaaaa(lp2697
(lp2698
(lp2699
(lp2700
(lp2701
L12L
aaa(lp2702
(lp2703
L-24L
aI0
aaa(lp2704
(lp2705
L-12L
aa(lp2706
L24L
aI0
aa(lp2707
aaaa(lp2708
(lp2709
(lp2710
(lp2711
L-12L
aaa(lp2712
(lp2713
L24L
aa(lp2714
aa(lp2715
(lp2716
L-12L
aa(lp2717
a(lp2718
aaa(lp2719
(lp2720
(lp2721
aaaaa(lp2722
(lp2723
(lp2724
(lp2725
(lp2726
L24L
aa(lp2727
L-24L
aI0
aaa(lp2728
(lp2729
L-12L
aa(lp2730
a(lp2731
L12L
aI0
aI0
aaaaa(lp2732
(lp2733
(lp2734
(lp2735
L-24L
aaa(lp2736
(lp2737
L36L
aa(lp2738
L12L
aI0
aaa(lp2739
(lp2740
L-12L
aa(lp2741
L-12L
aI0
aa(lp2742
aaa(lp2743
(lp2744
(lp2745
aaaa(lp2746
(lp2747
(lp2748
(lp2749
L-12L
aaa(lp2750
(lp2751
L24L
aa(lp2752
aa(lp2753
(lp2754
L-12L
aa(lp2755
a(lp2756
aaa(lp2757
(lp2758
(lp2759
aaa(lp2760
(lp2761
(lp2762
aaaaa(lp2763
(lp2764
(lp2765
(lp2766
(lp2767
L12L
aa(lp2768
L-24L
aI0
aa(lp2769
L12L
aI0
aI0
aaaaa(lp2770
(lp2771
(lp2772
(lp2773
L-24L
aa(lp2774
L24L
aI0
aaa(lp2775
(lp2776
L24L
aa(lp2777
L-24L
aI0
aa(lp2778
aaa(lp2779
(lp2780
(lp2781
aaaa(lp2782
(lp2783
(lp2784
(lp2785
L12L
aaa(lp2786
(lp2787
L-36L
aa(lp2788
L12L
aI0
aaa(lp2789
(lp2790
L24L
aa(lp2791
L-12L
aI0
aa(lp2792
aaa(lp2793
(lp2794
(lp2795
aaa(lp2796
(lp2797
(lp2798
aaaa(lp2799
(lp2800
(lp2801
(lp2802
L12L
aaa(lp2803
(lp2804
L-24L
aa(lp2805
aa(lp2806
(lp2807
L12L
aa(lp2808
a(lp2809
aaa(lp2810
(lp2811
(lp2812
aaa(lp2813
(lp2814
(lp2815
aaa(lp2816
(lp2817
(lp2818
aaaaaasg219
I6
sg220
g1466
sg548
g551
sbag2
(g102
g4
Ntp2819
Rp2820
(dp2821
g106
(lp2822
(lp2823
(lp2824
(lp2825
(lp2826
(lp2827
(lp2828
L-4L
aa(lp2829
L8L
aI0
aa(lp2830
L-4L
aI0
aI0
aaaaaaa(lp2831
(lp2832
(lp2833
(lp2834
(lp2835
(lp2836
L-8L
aa(lp2837
L16L
aI0
aa(lp2838
L-8L
aI0
aI0
aaaaaa(lp2839
(lp2840
(lp2841
(lp2842
(lp2843
aaaaaa(lp2844
(lp2845
(lp2846
(lp2847
(lp2848
(lp2849
L8L
aa(lp2850
L-8L
aI0
aaa(lp2851
(lp2852
L-12L
aa(lp2853
L16L
aI0
aa(lp2854
L-4L
aI0
aI0
aaaaaa(lp2855
(lp2856
(lp2857
(lp2858
(lp2859
L8L
aa(lp2860
L-8L
aI0
aaa(lp2861
(lp2862
L-8L
aI0
aa(lp2863
L8L
aI0
aI0
aaaaa(lp2864
(lp2865
(lp2866
(lp2867
aaaaa(lp2868
(lp2869
(lp2870
(lp2871
(lp2872
L8L
aa(lp2873
L-16L
aI0
aa(lp2874
L8L
aI0
aI0
aaaaa(lp2875
(lp2876
(lp2877
(lp2878
L-8L
aa(lp2879
L8L
aI0
aaa(lp2880
(lp2881
L8L
aa(lp2882
L-8L
aI0
aa(lp2883
aaa(lp2884
(lp2885
(lp2886
aaaa(lp2887
(lp2888
(lp2889
(lp2890
L-8L
aa(lp2891
L8L
aI0
aaa(lp2892
(lp2893
L8L
aa(lp2894
L-8L
aI0
aa(lp2895
aaa(lp2896
(lp2897
(lp2898
aaa(lp2899
(lp2900
(lp2901
aaaaaa(lp2902
(lp2903
(lp2904
(lp2905
(lp2906
(lp2907
L8L
aa(lp2908
L-8L
aI0
aaa(lp2909
(lp2910
L-8L
aa(lp2911
L8L
aI0
aa(lp2912
aaaaa(lp2913
(lp2914
(lp2915
(lp2916
(lp2917
L8L
aa(lp2918
L-8L
aI0
aaa(lp2919
(lp2920
L-8L
aI0
aa(lp2921
L8L
aI0
aI0
aaaaa(lp2922
(lp2923
(lp2924
(lp2925
aaaaa(lp2926
(lp2927
(lp2928
(lp2929
(lp2930
L8L
aa(lp2931
L-16L
aI0
aa(lp2932
L8L
aI0
aI0
aaaaa(lp2933
(lp2934
(lp2935
(lp2936
L-8L
aa(lp2937
L8L
aI0
aaa(lp2938
(lp2939
L8L
aa(lp2940
L-8L
aI0
aa(lp2941
aaa(lp2942
(lp2943
(lp2944
aaaa(lp2945
(lp2946
(lp2947
(lp2948
L-8L
aa(lp2949
L8L
aI0
aaa(lp2950
(lp2951
L8L
aa(lp2952
L-8L
aI0
aa(lp2953
aaa(lp2954
(lp2955
(lp2956
aaa(lp2957
(lp2958
(lp2959
aaaaa(lp2960
(lp2961
(lp2962
(lp2963
(lp2964
aaaaaa(lp2965
(lp2966
(lp2967
(lp2968
(lp2969
(lp2970
L-4L
aaa(lp2971
(lp2972
L8L
aa(lp2973
aa(lp2974
(lp2975
L-4L
aa(lp2976
a(lp2977
aaaaa(lp2978
(lp2979
(lp2980
(lp2981
(lp2982
L-8L
aaa(lp2983
(lp2984
L8L
aa(lp2985
L8L
aI0
aaa(lp2986
(lp2987
L-8L
aI0
aa(lp2988
aaaa(lp2989
(lp2990
(lp2991
(lp2992
aaaaa(lp2993
(lp2994
(lp2995
(lp2996
(lp2997
L-4L
aaa(lp2998
(lp2999
L-8L
aa(lp3000
L16L
aI0
aaa(lp3001
(lp3002
L8L
aa(lp3003
L-8L
aI0
aa(lp3004
L-4L
aI0
aI0
aaaaa(lp3005
(lp3006
(lp3007
(lp3008
L8L
aaa(lp3009
(lp3010
L-16L
aa(lp3011
aa(lp3012
(lp3013
L8L
aa(lp3014
a(lp3015
aaa(lp3016
(lp3017
(lp3018
aaaa(lp3019
(lp3020
(lp3021
(lp3022
L8L
aaa(lp3023
(lp3024
L-16L
aa(lp3025
aa(lp3026
(lp3027
L8L
aa(lp3028
a(lp3029
aaa(lp3030
(lp3031
(lp3032
aaa(lp3033
(lp3034
(lp3035
aaaaa(lp3036
(lp3037
(lp3038
(lp3039
(lp3040
L-8L
aa(lp3041
L8L
aI0
aaa(lp3042
(lp3043
L8L
aI0
aa(lp3044
L-8L
aI0
aI0
aaaaa(lp3045
(lp3046
(lp3047
(lp3048
L8L
aaa(lp3049
(lp3050
L-8L
aa(lp3051
L-8L
aI0
aaa(lp3052
(lp3053
L8L
aI0
aa(lp3054
aaa(lp3055
(lp3056
(lp3057
aaaa(lp3058
(lp3059
(lp3060
(lp3061
L8L
aaa(lp3062
(lp3063
L-8L
aa(lp3064
L-8L
aI0
aaa(lp3065
(lp3066
L8L
aI0
aa(lp3067
aaa(lp3068
(lp3069
(lp3070
aaa(lp3071
(lp3072
(lp3073
aaaa(lp3074
(lp3075
(lp3076
(lp3077
aaaaa(lp3078
(lp3079
(lp3080
(lp3081
(lp3082
L-4L
aa(lp3083
L8L
aI0
aa(lp3084
L-4L
aI0
aI0
aaaaa(lp3085
(lp3086
(lp3087
(lp3088
L8L
aa(lp3089
L-8L
aI0
aaa(lp3090
(lp3091
L-8L
aa(lp3092
L8L
aI0
aa(lp3093
aaa(lp3094
(lp3095
(lp3096
aaaa(lp3097
(lp3098
(lp3099
(lp3100
L-4L
aaa(lp3101
(lp3102
L16L
aa(lp3103
L-8L
aI0
aaa(lp3104
(lp3105
L-12L
aa(lp3106
L8L
aI0
aa(lp3107
aaa(lp3108
(lp3109
(lp3110
aaa(lp3111
(lp3112
(lp3113
aaaa(lp3114
(lp3115
(lp3116
(lp3117
L-8L
aaa(lp3118
(lp3119
L16L
aa(lp3120
aa(lp3121
(lp3122
L-8L
aa(lp3123
a(lp3124
aaa(lp3125
(lp3126
(lp3127
aaa(lp3128
(lp3129
(lp3130
aaa(lp3131
(lp3132
(lp3133
aaaa(lp3134
(lp3135
(lp3136
(lp3137
L-4L
aaa(lp3138
(lp3139
L8L
aa(lp3140
aa(lp3141
(lp3142
L-4L
aa(lp3143
a(lp3144
aaa(lp3145
(lp3146
(lp3147
aaa(lp3148
(lp3149
(lp3150
aaa(lp3151
(lp3152
(lp3153
aaa(lp3154
(lp3155
(lp3156
aaaaaasg219
I6
sg220
g2132
sg548
g551
sbag2
(g102
g4
Ntp3157
Rp3158
(dp3159
g106
(lp3160
(lp3161
(lp3162
(lp3163
(lp3164
(lp3165
(lp3166
aaaaaasg219
I6
sg220
(lp3167
(lp3168
(lp3169
(lp3170
(lp3171
(lp3172
(lp3173
I1
aaaaaaasg548
g551
sbaasg219
I1
sg548
g687
sbsg34
(dp3174
g763
Nssg707
(g29
g71
tp3175
sg10
I3260538045716461071
sbtp3176
sg34
g76
sg37
I00
sbtp3177
sg34
g78
sg37
I00
sbsI1
g6
sI2
g6
ss.